; Function Attrs: mustprogress uwtable
define noundef double @_ZN13TextureObject25GetResolutionInMegaPixelsEv(ptr nocapture noundef nonnull readonly align 8 dereferenceable(48) %0) local_unnamed_addr #5 align 2 {
  %2 = getelementptr inbounds i8, ptr %0, i64 8
  %3 = load ptr, ptr %2, align 8
  %4 = load ptr, ptr %0, align 8
  %.not = icmp eq ptr %3, %4
  br i1 %.not, label %._crit_edge, label %_ZN13TextureObject12TextureWidthEm.exit.i

_ZN13TextureObject12TextureWidthEm.exit.i:        ; preds = %1, %_ZN13TextureObject11TextureAreaEm.exit
  %5 = phi ptr [ %26, %_ZN13TextureObject11TextureAreaEm.exit ], [ %4, %1 ]
  %6 = phi i64 [ %24, %_ZN13TextureObject11TextureAreaEm.exit ], [ 0, %1 ]
  %.09 = phi i32 [ %23, %_ZN13TextureObject11TextureAreaEm.exit ], [ 0, %1 ]
  %.058 = phi i64 [ %22, %_ZN13TextureObject11TextureAreaEm.exit ], [ 0, %1 ]
  %7 = getelementptr inbounds %struct.TextureImageInfo, ptr %5, i64 %6
  %8 = tail call noundef i32 @_ZNK6QImage5widthEv(ptr noundef nonnull align 8 dereferenceable(32) %7)
  %9 = load ptr, ptr %2, align 8
  %10 = load ptr, ptr %0, align 8
  %11 = ptrtoint ptr %9 to i64
  %12 = ptrtoint ptr %10 to i64
  %13 = sub i64 %11, %12
  %14 = ashr exact i64 %13, 5
  %15 = icmp ugt i64 %14, %6
  br i1 %15, label %_ZN13TextureObject11TextureAreaEm.exit, label %16

16:                                               ; preds = %_ZN13TextureObject12TextureWidthEm.exit.i
  tail call void @_Z11ensure_failPKcS0_j(ptr noundef nonnull @.str.7, ptr noundef nonnull @.str.2, i32 noundef 114) #20
  unreachable

_ZN13TextureObject11TextureAreaEm.exit:           ; preds = %_ZN13TextureObject12TextureWidthEm.exit.i
  %17 = sext i32 %8 to i64
  %18 = getelementptr inbounds %struct.TextureImageInfo, ptr %10, i64 %6
  %19 = tail call noundef i32 @_ZNK6QImage6heightEv(ptr noundef nonnull align 8 dereferenceable(32) %18)
  %20 = sext i32 %19 to i64
  %21 = mul nsw i64 %20, %17
  %22 = add nsw i64 %21, %.058
  %23 = add i32 %.09, 1
  %24 = zext i32 %23 to i64
  %25 = load ptr, ptr %2, align 8
  %26 = load ptr, ptr %0, align 8
  %27 = ptrtoint ptr %25 to i64
  %28 = ptrtoint ptr %26 to i64
  %29 = sub i64 %27, %28
  %30 = ashr exact i64 %29, 5
  %31 = icmp ugt i64 %30, %24
  br i1 %31, label %_ZN13TextureObject12TextureWidthEm.exit.i, label %._crit_edge.loopexit, !llvm.loop !24

._crit_edge.loopexit:                             ; preds = %_ZN13TextureObject11TextureAreaEm.exit
  %32 = sitofp i64 %22 to double
  br label %._crit_edge

._crit_edge:                                      ; preds = %._crit_edge.loopexit, %1
  %.05.lcssa = phi double [ 0.000000e+00, %1 ], [ %32, %._crit_edge.loopexit ]
  %33 = fdiv double %.05.lcssa, 1.000000e+06
  ret double %33
}